target datalayout = "e-m:e-p270:32:32-p271:32:32-p272:64:64-i64:64-i128:128-f80:128-n8:16:32:64-S128"
target triple = "x86_64-pc-linux-gnu"

%struct.SCPRContext = type { i32, ptr, ptr, %struct.GetByteContext, %struct.RangeCoder, [3 x [4096 x %struct.PixelModel]], [6 x [7 x i32]], [6 x [257 x i32]], [257 x i32], [257 x i32], [6 x i32], [4 x [17 x i32]], [2 x [513 x i32]], i32, i32, i32, ptr, i32, i32, [3 x [4096 x %struct.PixelModel3]], [6 x %struct.RunModel3], %struct.RunModel3, %struct.RunModel3, %struct.FillModel3, [4 x %struct.SxyModel3], [2 x %struct.MVModel3], [6 x %struct.OpModel3], ptr, ptr }
%struct.GetByteContext = type { ptr, ptr, ptr }
%struct.RangeCoder = type { i32, i32, i32 }
%struct.PixelModel = type { [256 x i32], [16 x i32], i32 }
%struct.PixelModel3 = type { i8, i8, i8, i8, i16, i32, [256 x i8], [256 x i16], [256 x i16], [256 x i16], [32 x i8] }
%struct.RunModel3 = type { i32, [2 x [256 x i16]], [256 x i16], [32 x i8] }
%struct.FillModel3 = type { i32, [2 x [5 x i16]], [5 x i16], [32 x i8] }
%struct.SxyModel3 = type { i32, [2 x [16 x i16]], [16 x i16], [32 x i8] }
%struct.MVModel3 = type { i32, [2 x [512 x i16]], [512 x i16], [32 x i8] }
%struct.OpModel3 = type { i32, [2 x [6 x i16]], [6 x i16], [32 x i8] }

; Function Attrs: nounwind uwtable
define internal i32 @decode_unit(ptr noundef %0, ptr noundef %1, i32 noundef %2, ptr noundef %3) #1 {
  %5 = alloca i32, align 4
  %6 = alloca ptr, align 8
  %7 = alloca ptr, align 8
  %8 = alloca i32, align 4
  %9 = alloca ptr, align 8
  %10 = alloca ptr, align 8
  %11 = alloca ptr, align 8
  %12 = alloca i32, align 4
  %13 = alloca i32, align 4
  %14 = alloca i32, align 4
  %15 = alloca i32, align 4
  %16 = alloca i32, align 4
  %17 = alloca i32, align 4
  %18 = alloca i32, align 4
  %19 = alloca i32, align 4
  %20 = alloca i32, align 4
  %21 = alloca i32, align 4
  %22 = alloca i32, align 4
  %23 = alloca i32, align 4
  %24 = alloca i32, align 4
  %25 = alloca i32, align 4
  store ptr %0, ptr %6, align 8, !tbaa !29
  store ptr %1, ptr %7, align 8, !tbaa !135
  store i32 %2, ptr %8, align 4, !tbaa !57
  store ptr %3, ptr %9, align 8, !tbaa !52
  call void @llvm.lifetime.start.p0(i64 8, ptr %10) #9
  %26 = load ptr, ptr %6, align 8, !tbaa !29
  %27 = getelementptr inbounds nuw %struct.SCPRContext, ptr %26, i32 0, i32 3
  store ptr %27, ptr %10, align 8, !tbaa !55
  call void @llvm.lifetime.start.p0(i64 8, ptr %11) #9
  %28 = load ptr, ptr %6, align 8, !tbaa !29
  %29 = getelementptr inbounds nuw %struct.SCPRContext, ptr %28, i32 0, i32 4
  store ptr %29, ptr %11, align 8, !tbaa !80
  call void @llvm.lifetime.start.p0(i64 4, ptr %12) #9
  %30 = load ptr, ptr %7, align 8, !tbaa !135
  %31 = getelementptr inbounds nuw %struct.PixelModel, ptr %30, i32 0, i32 2
  %32 = load i32, ptr %31, align 4, !tbaa !113
  store i32 %32, ptr %12, align 4, !tbaa !57
  call void @llvm.lifetime.start.p0(i64 4, ptr %13) #9
  call void @llvm.lifetime.start.p0(i64 4, ptr %14) #9
  store i32 0, ptr %14, align 4, !tbaa !57
  call void @llvm.lifetime.start.p0(i64 4, ptr %15) #9
  store i32 0, ptr %15, align 4, !tbaa !57
  call void @llvm.lifetime.start.p0(i64 4, ptr %16) #9
  store i32 0, ptr %16, align 4, !tbaa !57
  call void @llvm.lifetime.start.p0(i64 4, ptr %17) #9
  call void @llvm.lifetime.start.p0(i64 4, ptr %18) #9
  call void @llvm.lifetime.start.p0(i64 4, ptr %19) #9
  call void @llvm.lifetime.start.p0(i64 4, ptr %20) #9
  call void @llvm.lifetime.start.p0(i64 4, ptr %21) #9
  %33 = load ptr, ptr %6, align 8, !tbaa !29
  %34 = getelementptr inbounds nuw %struct.SCPRContext, ptr %33, i32 0, i32 27
  %35 = load ptr, ptr %34, align 8, !tbaa !33
  %36 = load ptr, ptr %11, align 8, !tbaa !80
  %37 = load i32, ptr %12, align 4, !tbaa !57
  %38 = call i32 %35(ptr noundef %36, i32 noundef %37, ptr noundef %13)
  store i32 %38, ptr %19, align 4, !tbaa !57
  %39 = icmp slt i32 %38, 0
  br i1 %39, label %40, label %42

40:                                               ; preds = %4
  %41 = load i32, ptr %19, align 4, !tbaa !57
  store i32 %41, ptr %5, align 4
  store i32 1, ptr %22, align 4
  br label %204

42:                                               ; preds = %4
  br label %43

43:                                               ; preds = %63, %42
  %44 = load i32, ptr %14, align 4, !tbaa !57
  %45 = icmp ult i32 %44, 16
  br i1 %45, label %46, label %66

46:                                               ; preds = %43
  %47 = load ptr, ptr %7, align 8, !tbaa !135
  %48 = getelementptr inbounds nuw %struct.PixelModel, ptr %47, i32 0, i32 1
  %49 = load i32, ptr %14, align 4, !tbaa !57
  %50 = zext i32 %49 to i64
  %51 = getelementptr inbounds nuw [16 x i32], ptr %48, i64 0, i64 %50
  %52 = load i32, ptr %51, align 4, !tbaa !57
  store i32 %52, ptr %16, align 4, !tbaa !57
  %53 = load i32, ptr %13, align 4, !tbaa !57
  %54 = load i32, ptr %15, align 4, !tbaa !57
  %55 = load i32, ptr %16, align 4, !tbaa !57
  %56 = add i32 %54, %55
  %57 = icmp uge i32 %53, %56
  br i1 %57, label %58, label %62

58:                                               ; preds = %46
  %59 = load i32, ptr %16, align 4, !tbaa !57
  %60 = load i32, ptr %15, align 4, !tbaa !57
  %61 = add i32 %60, %59
  store i32 %61, ptr %15, align 4, !tbaa !57
  br label %63

62:                                               ; preds = %46
  br label %66

63:                                               ; preds = %58
  %64 = load i32, ptr %14, align 4, !tbaa !57
  %65 = add i32 %64, 1
  store i32 %65, ptr %14, align 4, !tbaa !57
  br label %43, !llvm.loop !137

66:                                               ; preds = %62, %43
  %67 = load i32, ptr %14, align 4, !tbaa !57
  %68 = mul i32 %67, 16
  store i32 %68, ptr %20, align 4, !tbaa !57
  store i32 0, ptr %21, align 4, !tbaa !57
  br label %69

69:                                               ; preds = %89, %66
  %70 = load i32, ptr %20, align 4, !tbaa !57
  %71 = icmp slt i32 %70, 256
  br i1 %71, label %72, label %92

72:                                               ; preds = %69
  %73 = load ptr, ptr %7, align 8, !tbaa !135
  %74 = getelementptr inbounds nuw %struct.PixelModel, ptr %73, i32 0, i32 0
  %75 = load i32, ptr %20, align 4, !tbaa !57
  %76 = sext i32 %75 to i64
  %77 = getelementptr inbounds [256 x i32], ptr %74, i64 0, i64 %76
  %78 = load i32, ptr %77, align 4, !tbaa !57
  store i32 %78, ptr %21, align 4, !tbaa !57
  %79 = load i32, ptr %13, align 4, !tbaa !57
  %80 = load i32, ptr %15, align 4, !tbaa !57
  %81 = load i32, ptr %21, align 4, !tbaa !57
  %82 = add i32 %80, %81
  %83 = icmp uge i32 %79, %82
  br i1 %83, label %84, label %88

84:                                               ; preds = %72
  %85 = load i32, ptr %21, align 4, !tbaa !57
  %86 = load i32, ptr %15, align 4, !tbaa !57
  %87 = add i32 %86, %85
  store i32 %87, ptr %15, align 4, !tbaa !57
  br label %89

88:                                               ; preds = %72
  br label %92

89:                                               ; preds = %84
  %90 = load i32, ptr %20, align 4, !tbaa !57
  %91 = add nsw i32 %90, 1
  store i32 %91, ptr %20, align 4, !tbaa !57
  br label %69, !llvm.loop !138

92:                                               ; preds = %88, %69
  %93 = load i32, ptr %14, align 4, !tbaa !57
  %94 = icmp uge i32 %93, 16
  br i1 %94, label %98, label %95

95:                                               ; preds = %92
  %96 = load i32, ptr %20, align 4, !tbaa !57
  %97 = icmp sge i32 %96, 256
  br i1 %97, label %98, label %99

98:                                               ; preds = %95, %92
  store i32 -1094995529, ptr %5, align 4
  store i32 1, ptr %22, align 4
  br label %204

99:                                               ; preds = %95
  %100 = load ptr, ptr %6, align 8, !tbaa !29
  %101 = getelementptr inbounds nuw %struct.SCPRContext, ptr %100, i32 0, i32 28
  %102 = load ptr, ptr %101, align 8, !tbaa !40
  %103 = load ptr, ptr %10, align 8, !tbaa !55
  %104 = load ptr, ptr %11, align 8, !tbaa !80
  %105 = load i32, ptr %15, align 4, !tbaa !57
  %106 = load i32, ptr %21, align 4, !tbaa !57
  %107 = load i32, ptr %12, align 4, !tbaa !57
  %108 = call i32 %102(ptr noundef %103, ptr noundef %104, i32 noundef %105, i32 noundef %106, i32 noundef %107)
  store i32 %108, ptr %19, align 4, !tbaa !57
  %109 = icmp slt i32 %108, 0
  br i1 %109, label %110, label %112

110:                                              ; preds = %99
  %111 = load i32, ptr %19, align 4, !tbaa !57
  store i32 %111, ptr %5, align 4
  store i32 1, ptr %22, align 4
  br label %204

112:                                              ; preds = %99
  %113 = load i32, ptr %21, align 4, !tbaa !57
  %114 = load i32, ptr %8, align 4, !tbaa !57
  %115 = add i32 %113, %114
  %116 = load ptr, ptr %7, align 8, !tbaa !135
  %117 = getelementptr inbounds nuw %struct.PixelModel, ptr %116, i32 0, i32 0
  %118 = load i32, ptr %20, align 4, !tbaa !57
  %119 = sext i32 %118 to i64
  %120 = getelementptr inbounds [256 x i32], ptr %117, i64 0, i64 %119
  store i32 %115, ptr %120, align 4, !tbaa !57
  %121 = load i32, ptr %16, align 4, !tbaa !57
  %122 = load i32, ptr %8, align 4, !tbaa !57
  %123 = add i32 %121, %122
  %124 = load ptr, ptr %7, align 8, !tbaa !135
  %125 = getelementptr inbounds nuw %struct.PixelModel, ptr %124, i32 0, i32 1
  %126 = load i32, ptr %14, align 4, !tbaa !57
  %127 = zext i32 %126 to i64
  %128 = getelementptr inbounds nuw [16 x i32], ptr %125, i64 0, i64 %127
  store i32 %123, ptr %128, align 4, !tbaa !57
  %129 = load i32, ptr %8, align 4, !tbaa !57
  %130 = load i32, ptr %12, align 4, !tbaa !57
  %131 = add i32 %130, %129
  store i32 %131, ptr %12, align 4, !tbaa !57
  %132 = load i32, ptr %12, align 4, !tbaa !57
  %133 = icmp ugt i32 %132, 65536
  br i1 %133, label %134, label %194

134:                                              ; preds = %112
  store i32 0, ptr %12, align 4, !tbaa !57
  store i32 0, ptr %17, align 4, !tbaa !57
  br label %135

135:                                              ; preds = %156, %134
  %136 = load i32, ptr %17, align 4, !tbaa !57
  %137 = icmp slt i32 %136, 256
  br i1 %137, label %138, label %159

138:                                              ; preds = %135
  call void @llvm.lifetime.start.p0(i64 4, ptr %23) #9
  %139 = load ptr, ptr %7, align 8, !tbaa !135
  %140 = getelementptr inbounds nuw %struct.PixelModel, ptr %139, i32 0, i32 0
  %141 = load i32, ptr %17, align 4, !tbaa !57
  %142 = sext i32 %141 to i64
  %143 = getelementptr inbounds [256 x i32], ptr %140, i64 0, i64 %142
  %144 = load i32, ptr %143, align 4, !tbaa !57
  %145 = lshr i32 %144, 1
  %146 = add i32 %145, 1
  store i32 %146, ptr %23, align 4, !tbaa !57
  %147 = load i32, ptr %23, align 4, !tbaa !57
  %148 = load ptr, ptr %7, align 8, !tbaa !135
  %149 = getelementptr inbounds nuw %struct.PixelModel, ptr %148, i32 0, i32 0
  %150 = load i32, ptr %17, align 4, !tbaa !57
  %151 = sext i32 %150 to i64
  %152 = getelementptr inbounds [256 x i32], ptr %149, i64 0, i64 %151
  store i32 %147, ptr %152, align 4, !tbaa !57
  %153 = load i32, ptr %23, align 4, !tbaa !57
  %154 = load i32, ptr %12, align 4, !tbaa !57
  %155 = add i32 %154, %153
  store i32 %155, ptr %12, align 4, !tbaa !57
  call void @llvm.lifetime.end.p0(i64 4, ptr %23) #9
  br label %156

156:                                              ; preds = %138
  %157 = load i32, ptr %17, align 4, !tbaa !57
  %158 = add nsw i32 %157, 1
  store i32 %158, ptr %17, align 4, !tbaa !57
  br label %135, !llvm.loop !139

159:                                              ; preds = %135
  store i32 0, ptr %17, align 4, !tbaa !57
  br label %160

160:                                              ; preds = %190, %159
  %161 = load i32, ptr %17, align 4, !tbaa !57
  %162 = icmp slt i32 %161, 16
  br i1 %162, label %163, label %193

163:                                              ; preds = %160
  call void @llvm.lifetime.start.p0(i64 4, ptr %24) #9
  store i32 0, ptr %24, align 4, !tbaa !57
  call void @llvm.lifetime.start.p0(i64 4, ptr %25) #9
  %164 = load i32, ptr %17, align 4, !tbaa !57
  %165 = shl i32 %164, 4
  store i32 %165, ptr %25, align 4, !tbaa !57
  store i32 0, ptr %18, align 4, !tbaa !57
  br label %166

166:                                              ; preds = %180, %163
  %167 = load i32, ptr %18, align 4, !tbaa !57
  %168 = icmp slt i32 %167, 16
  br i1 %168, label %169, label %183

169:                                              ; preds = %166
  %170 = load ptr, ptr %7, align 8, !tbaa !135
  %171 = getelementptr inbounds nuw %struct.PixelModel, ptr %170, i32 0, i32 0
  %172 = load i32, ptr %25, align 4, !tbaa !57
  %173 = load i32, ptr %18, align 4, !tbaa !57
  %174 = add i32 %172, %173
  %175 = zext i32 %174 to i64
  %176 = getelementptr inbounds nuw [256 x i32], ptr %171, i64 0, i64 %175
  %177 = load i32, ptr %176, align 4, !tbaa !57
  %178 = load i32, ptr %24, align 4, !tbaa !57
  %179 = add i32 %178, %177
  store i32 %179, ptr %24, align 4, !tbaa !57
  br label %180

180:                                              ; preds = %169
  %181 = load i32, ptr %18, align 4, !tbaa !57
  %182 = add nsw i32 %181, 1
  store i32 %182, ptr %18, align 4, !tbaa !57
  br label %166, !llvm.loop !140

183:                                              ; preds = %166
  %184 = load i32, ptr %24, align 4, !tbaa !57
  %185 = load ptr, ptr %7, align 8, !tbaa !135
  %186 = getelementptr inbounds nuw %struct.PixelModel, ptr %185, i32 0, i32 1
  %187 = load i32, ptr %17, align 4, !tbaa !57
  %188 = sext i32 %187 to i64
  %189 = getelementptr inbounds [16 x i32], ptr %186, i64 0, i64 %188
  store i32 %184, ptr %189, align 4, !tbaa !57
  call void @llvm.lifetime.end.p0(i64 4, ptr %25) #9
  call void @llvm.lifetime.end.p0(i64 4, ptr %24) #9
  br label %190

190:                                              ; preds = %183
  %191 = load i32, ptr %17, align 4, !tbaa !57
  %192 = add nsw i32 %191, 1
  store i32 %192, ptr %17, align 4, !tbaa !57
  br label %160, !llvm.loop !141

193:                                              ; preds = %160
  br label %194

194:                                              ; preds = %193, %112
  %195 = load i32, ptr %12, align 4, !tbaa !57
  %196 = load ptr, ptr %7, align 8, !tbaa !135
  %197 = getelementptr inbounds nuw %struct.PixelModel, ptr %196, i32 0, i32 2
  store i32 %195, ptr %197, align 4, !tbaa !113
  %198 = load i32, ptr %20, align 4, !tbaa !57
  %199 = load ptr, ptr %6, align 8, !tbaa !29
  %200 = getelementptr inbounds nuw %struct.SCPRContext, ptr %199, i32 0, i32 17
  %201 = load i32, ptr %200, align 8, !tbaa !42
  %202 = and i32 %198, %201
  %203 = load ptr, ptr %9, align 8, !tbaa !52
  store i32 %202, ptr %203, align 4, !tbaa !57
  store i32 0, ptr %5, align 4
  store i32 1, ptr %22, align 4
  br label %204

204:                                              ; preds = %194, %110, %98, %40
  call void @llvm.lifetime.end.p0(i64 4, ptr %21) #9
  call void @llvm.lifetime.end.p0(i64 4, ptr %20) #9
  call void @llvm.lifetime.end.p0(i64 4, ptr %19) #9
  call void @llvm.lifetime.end.p0(i64 4, ptr %18) #9
  call void @llvm.lifetime.end.p0(i64 4, ptr %17) #9
  call void @llvm.lifetime.end.p0(i64 4, ptr %16) #9
  call void @llvm.lifetime.end.p0(i64 4, ptr %15) #9
  call void @llvm.lifetime.end.p0(i64 4, ptr %14) #9
  call void @llvm.lifetime.end.p0(i64 4, ptr %13) #9
  call void @llvm.lifetime.end.p0(i64 4, ptr %12) #9
  call void @llvm.lifetime.end.p0(i64 8, ptr %11) #9
  call void @llvm.lifetime.end.p0(i64 8, ptr %10) #9
  %205 = load i32, ptr %5, align 4
  ret i32 %205
}