; Function Attrs: nounwind uwtable
define internal fastcc range(i32 -2147483648, 1) i32 @decode_unit(ptr noundef %0, ptr noundef captures(none) %1, ptr noundef nonnull writeonly captures(none) %2) unnamed_addr #1 {
  %4 = alloca i32, align 4
  %5 = getelementptr inbounds nuw i8, ptr %0, i64 24
  %6 = getelementptr inbounds nuw i8, ptr %0, i64 48
  %7 = getelementptr inbounds nuw i8, ptr %1, i64 1088
  %8 = load i32, ptr %7, align 4, !tbaa !106
  call void @llvm.lifetime.start.p0(i64 4, ptr nonnull %4) #12
  %9 = getelementptr inbounds nuw i8, ptr %0, i64 36011968
  %10 = load ptr, ptr %9, align 8, !tbaa !29
  %11 = call i32 %10(ptr noundef nonnull %6, i32 noundef %8, ptr noundef nonnull %4) #12
  %12 = icmp slt i32 %11, 0
  br i1 %12, label %.thread, label %.preheader93

.preheader93:                                     ; preds = %3
  %13 = getelementptr inbounds nuw i8, ptr %1, i64 1024
  %14 = load i32, ptr %4, align 4, !tbaa !61
  br label %15

15:                                               ; preds = %.preheader93, %19
  %indvars.iv = phi i64 [ 0, %.preheader93 ], [ %indvars.iv.next, %19 ]
  %.08197 = phi i32 [ 0, %.preheader93 ], [ %18, %19 ]
  %16 = getelementptr inbounds nuw [16 x i32], ptr %13, i64 0, i64 %indvars.iv
  %17 = load i32, ptr %16, align 4, !tbaa !61
  %18 = add i32 %17, %.08197
  %.not = icmp ult i32 %14, %18
  br i1 %.not, label %20, label %19

19:                                               ; preds = %15
  %indvars.iv.next = add nuw nsw i64 %indvars.iv, 1
  %exitcond.not = icmp eq i64 %indvars.iv.next, 16
  br i1 %exitcond.not, label %.thread, label %15, !llvm.loop !130

20:                                               ; preds = %15
  %21 = trunc nuw nsw i64 %indvars.iv to i32
  %22 = shl i32 %21, 4
  %23 = icmp slt i32 %22, 256
  br i1 %23, label %.lr.ph, label %.thread

.lr.ph:                                           ; preds = %20
  %24 = and i64 %indvars.iv, 4294967295
  %25 = shl nuw nsw i64 %24, 4
  br label %26

26:                                               ; preds = %.lr.ph, %30
  %indvars.iv112 = phi i64 [ %25, %.lr.ph ], [ %indvars.iv.next113, %30 ]
  %.18298 = phi i32 [ %.08197, %.lr.ph ], [ %29, %30 ]
  %27 = getelementptr inbounds nuw [256 x i32], ptr %1, i64 0, i64 %indvars.iv112
  %28 = load i32, ptr %27, align 4, !tbaa !61
  %29 = add i32 %28, %.18298
  %.not89 = icmp ult i32 %14, %29
  br i1 %.not89, label %31, label %30

30:                                               ; preds = %26
  %indvars.iv.next113 = add nuw nsw i64 %indvars.iv112, 1
  %exitcond115.not = icmp eq i64 %indvars.iv.next113, 256
  br i1 %exitcond115.not, label %.thread, label %26, !llvm.loop !131

31:                                               ; preds = %26
  %32 = trunc nuw nsw i64 %indvars.iv112 to i32
  %33 = icmp samesign ugt i64 %indvars.iv, 15
  br i1 %33, label %.thread, label %34

34:                                               ; preds = %31
  %35 = getelementptr inbounds nuw i8, ptr %0, i64 36011976
  %36 = load ptr, ptr %35, align 8, !tbaa !36
  %37 = call i32 %36(ptr noundef nonnull %5, ptr noundef nonnull %6, i32 noundef %.18298, i32 noundef %28, i32 noundef %8) #12
  %38 = icmp slt i32 %37, 0
  br i1 %38, label %.thread, label %39

39:                                               ; preds = %34
  %40 = add i32 %28, 400
  %sext = shl i64 %indvars.iv112, 32
  %41 = ashr exact i64 %sext, 32
  %42 = getelementptr inbounds [256 x i32], ptr %1, i64 0, i64 %41
  store i32 %40, ptr %42, align 4, !tbaa !61
  %43 = add i32 %17, 400
  %44 = getelementptr inbounds nuw [16 x i32], ptr %13, i64 0, i64 %24
  store i32 %43, ptr %44, align 4, !tbaa !61
  %45 = add i32 %8, 400
  %46 = icmp ugt i32 %45, 65536
  br i1 %46, label %.preheader92, label %.loopexit

.preheader92:                                     ; preds = %39, %.preheader92
  %indvars.iv116 = phi i64 [ %indvars.iv.next117, %.preheader92 ], [ 0, %39 ]
  %.1101 = phi i32 [ %51, %.preheader92 ], [ 0, %39 ]
  %47 = getelementptr inbounds nuw [256 x i32], ptr %1, i64 0, i64 %indvars.iv116
  %48 = load i32, ptr %47, align 4, !tbaa !61
  %49 = lshr i32 %48, 1
  %50 = add nuw i32 %49, 1
  store i32 %50, ptr %47, align 4, !tbaa !61
  %51 = add i32 %50, %.1101
  %indvars.iv.next117 = add nuw nsw i64 %indvars.iv116, 1
  %exitcond119.not = icmp eq i64 %indvars.iv.next117, 256
  br i1 %exitcond119.not, label %.preheader, label %.preheader92, !llvm.loop !132

.preheader:                                       ; preds = %.preheader92, %58
  %indvars.iv124 = phi i64 [ %indvars.iv.next125, %58 ], [ 0, %.preheader92 ]
  %52 = shl nuw nsw i64 %indvars.iv124, 4
  br label %53

53:                                               ; preds = %.preheader, %53
  %indvars.iv120 = phi i64 [ 0, %.preheader ], [ %indvars.iv.next121, %53 ]
  %.071103 = phi i32 [ 0, %.preheader ], [ %57, %53 ]
  %54 = add nuw nsw i64 %indvars.iv120, %52
  %55 = getelementptr inbounds nuw [256 x i32], ptr %1, i64 0, i64 %54
  %56 = load i32, ptr %55, align 4, !tbaa !61
  %57 = add i32 %56, %.071103
  %indvars.iv.next121 = add nuw nsw i64 %indvars.iv120, 1
  %exitcond123.not = icmp eq i64 %indvars.iv.next121, 16
  br i1 %exitcond123.not, label %58, label %53, !llvm.loop !133

58:                                               ; preds = %53
  %59 = getelementptr inbounds nuw [16 x i32], ptr %13, i64 0, i64 %indvars.iv124
  store i32 %57, ptr %59, align 4, !tbaa !61
  %indvars.iv.next125 = add nuw nsw i64 %indvars.iv124, 1
  %exitcond127.not = icmp eq i64 %indvars.iv.next125, 16
  br i1 %exitcond127.not, label %.loopexit, label %.preheader, !llvm.loop !134

.loopexit:                                        ; preds = %58, %39
  %.072 = phi i32 [ %45, %39 ], [ %51, %58 ]
  store i32 %.072, ptr %7, align 4, !tbaa !106
  %60 = getelementptr inbounds nuw i8, ptr %0, i64 13431368
  %61 = load i32, ptr %60, align 8, !tbaa !38
  %62 = and i32 %61, %32
  store i32 %62, ptr %2, align 4, !tbaa !61
  br label %.thread

.thread:                                          ; preds = %19, %30, %20, %34, %31, %3, %.loopexit
  %.0 = phi i32 [ 0, %.loopexit ], [ %11, %3 ], [ -1094995529, %31 ], [ %37, %34 ], [ -1094995529, %20 ], [ -1094995529, %30 ], [ -1094995529, %19 ]
  call void @llvm.lifetime.end.p0(i64 4, ptr nonnull %4) #12
  ret i32 %.0
}